; Function Attrs: nounwind uwtable
define range(i32 -1, 2) i32 @memCompare(ptr noundef readonly captures(none) %0, ptr noundef readonly captures(none) %1, i32 noundef %2) local_unnamed_addr #0 {
  %4 = tail call i32 @Kit_TruthWordNum_64bit(i32 noundef %2) #19
  %5 = zext i32 %4 to i64
  br label %6

6:                                                ; preds = %9, %3
  %indvars.iv = phi i64 [ %10, %9 ], [ %5, %3 ]
  %7 = trunc nuw i64 %indvars.iv to i32
  %8 = icmp sgt i32 %7, 0
  br i1 %8, label %9, label %.loopexit

9:                                                ; preds = %6
  %10 = add nsw i64 %indvars.iv, -1
  %11 = getelementptr inbounds nuw i64, ptr %0, i64 %10
  %12 = load i64, ptr %11, align 8, !tbaa !3
  %13 = getelementptr inbounds nuw i64, ptr %1, i64 %10
  %14 = load i64, ptr %13, align 8, !tbaa !3
  %15 = icmp eq i64 %12, %14
  br i1 %15, label %6, label %16, !llvm.loop !7

16:                                               ; preds = %9
  %17 = icmp ugt i64 %12, %14
  %. = select i1 %17, i32 1, i32 -1
  br label %.loopexit

.loopexit:                                        ; preds = %6, %16
  %.011 = phi i32 [ %., %16 ], [ 0, %6 ]
  ret i32 %.011
}